target datalayout = "e-m:e-p270:32:32-p271:32:32-p272:64:64-i64:64-i128:128-f80:128-n8:16:32:64-S128"
target triple = "x86_64-pc-linux-gnu"

%struct.rsa_st = type { i32, ptr, i32, ptr, ptr, ptr, ptr, ptr, ptr, ptr, ptr, ptr, ptr, %struct.rsa_pss_params_30_st, ptr, ptr, %struct.crypto_ex_data_st, %struct.CRYPTO_REF_COUNT, i32, ptr, ptr, ptr, ptr, ptr, ptr, i32 }
%struct.rsa_pss_params_30_st = type { i32, %struct.anon, i32, i32 }
%struct.anon = type { i32, i32 }
%struct.crypto_ex_data_st = type { ptr, ptr }
%struct.CRYPTO_REF_COUNT = type { i32 }
%struct.rsa_meth_st = type { ptr, ptr, ptr, ptr, ptr, ptr, ptr, ptr, ptr, i32, ptr, ptr, ptr, ptr, ptr }

@.str.2 = private unnamed_addr constant [33 x i8] c"../openssl/crypto/rsa/rsa_ossl.c\00", align 1
@__func__.rsa_ossl_public_encrypt = private unnamed_addr constant [24 x i8] c"rsa_ossl_public_encrypt\00", align 1

; Function Attrs: nounwind uwtable
define internal i32 @rsa_ossl_public_encrypt(i32 noundef %0, ptr noundef %1, ptr noundef %2, ptr noundef %3, i32 noundef %4) #0 {
  %6 = alloca i32, align 4
  %7 = alloca i32, align 4
  %8 = alloca ptr, align 8
  %9 = alloca ptr, align 8
  %10 = alloca ptr, align 8
  %11 = alloca i32, align 4
  %12 = alloca ptr, align 8
  %13 = alloca ptr, align 8
  %14 = alloca i32, align 4
  %15 = alloca i32, align 4
  %16 = alloca i32, align 4
  %17 = alloca ptr, align 8
  %18 = alloca ptr, align 8
  %19 = alloca i32, align 4
  store i32 %0, ptr %7, align 4, !tbaa !8
  store ptr %1, ptr %8, align 8, !tbaa !10
  store ptr %2, ptr %9, align 8, !tbaa !10
  store ptr %3, ptr %10, align 8, !tbaa !12
  store i32 %4, ptr %11, align 4, !tbaa !8
  call void @llvm.lifetime.start.p0(i64 8, ptr %12) #6
  call void @llvm.lifetime.start.p0(i64 8, ptr %13) #6
  call void @llvm.lifetime.start.p0(i64 4, ptr %14) #6
  call void @llvm.lifetime.start.p0(i64 4, ptr %15) #6
  store i32 0, ptr %15, align 4, !tbaa !8
  call void @llvm.lifetime.start.p0(i64 4, ptr %16) #6
  store i32 -1, ptr %16, align 4, !tbaa !8
  call void @llvm.lifetime.start.p0(i64 8, ptr %17) #6
  store ptr null, ptr %17, align 8, !tbaa !10
  call void @llvm.lifetime.start.p0(i64 8, ptr %18) #6
  store ptr null, ptr %18, align 8, !tbaa !14
  %20 = load ptr, ptr %10, align 8, !tbaa !12
  %21 = getelementptr inbounds nuw %struct.rsa_st, ptr %20, i32 0, i32 5
  %22 = load ptr, ptr %21, align 8, !tbaa !16
  %23 = call i32 @BN_num_bits(ptr noundef %22)
  %24 = icmp sgt i32 %23, 16384
  br i1 %24, label %25, label %26

25:                                               ; preds = %5
  call void @ERR_new()
  call void @ERR_set_debug(ptr noundef @.str.2, i32 noundef 108, ptr noundef @__func__.rsa_ossl_public_encrypt)
  call void (i32, i32, ptr, ...) @ERR_set_error(i32 noundef 4, i32 noundef 105, ptr noundef null)
  store i32 -1, ptr %6, align 4
  store i32 1, ptr %19, align 4
  br label %177

26:                                               ; preds = %5
  %27 = load ptr, ptr %10, align 8, !tbaa !12
  %28 = getelementptr inbounds nuw %struct.rsa_st, ptr %27, i32 0, i32 5
  %29 = load ptr, ptr %28, align 8, !tbaa !16
  %30 = load ptr, ptr %10, align 8, !tbaa !12
  %31 = getelementptr inbounds nuw %struct.rsa_st, ptr %30, i32 0, i32 6
  %32 = load ptr, ptr %31, align 8, !tbaa !30
  %33 = call i32 @BN_ucmp(ptr noundef %29, ptr noundef %32)
  %34 = icmp sle i32 %33, 0
  br i1 %34, label %35, label %36

35:                                               ; preds = %26
  call void @ERR_new()
  call void @ERR_set_debug(ptr noundef @.str.2, i32 noundef 113, ptr noundef @__func__.rsa_ossl_public_encrypt)
  call void (i32, i32, ptr, ...) @ERR_set_error(i32 noundef 4, i32 noundef 101, ptr noundef null)
  store i32 -1, ptr %6, align 4
  store i32 1, ptr %19, align 4
  br label %177

36:                                               ; preds = %26
  %37 = load ptr, ptr %10, align 8, !tbaa !12
  %38 = getelementptr inbounds nuw %struct.rsa_st, ptr %37, i32 0, i32 5
  %39 = load ptr, ptr %38, align 8, !tbaa !16
  %40 = call i32 @BN_num_bits(ptr noundef %39)
  %41 = icmp sgt i32 %40, 3072
  br i1 %41, label %42, label %50

42:                                               ; preds = %36
  %43 = load ptr, ptr %10, align 8, !tbaa !12
  %44 = getelementptr inbounds nuw %struct.rsa_st, ptr %43, i32 0, i32 6
  %45 = load ptr, ptr %44, align 8, !tbaa !30
  %46 = call i32 @BN_num_bits(ptr noundef %45)
  %47 = icmp sgt i32 %46, 64
  br i1 %47, label %48, label %49

48:                                               ; preds = %42
  call void @ERR_new()
  call void @ERR_set_debug(ptr noundef @.str.2, i32 noundef 120, ptr noundef @__func__.rsa_ossl_public_encrypt)
  call void (i32, i32, ptr, ...) @ERR_set_error(i32 noundef 4, i32 noundef 101, ptr noundef null)
  store i32 -1, ptr %6, align 4
  store i32 1, ptr %19, align 4
  br label %177

49:                                               ; preds = %42
  br label %50

50:                                               ; preds = %49, %36
  %51 = load ptr, ptr %10, align 8, !tbaa !12
  %52 = getelementptr inbounds nuw %struct.rsa_st, ptr %51, i32 0, i32 1
  %53 = load ptr, ptr %52, align 8, !tbaa !31
  %54 = call ptr @BN_CTX_new_ex(ptr noundef %53)
  store ptr %54, ptr %18, align 8, !tbaa !14
  %55 = icmp eq ptr %54, null
  br i1 %55, label %56, label %57

56:                                               ; preds = %50
  br label %170

57:                                               ; preds = %50
  %58 = load ptr, ptr %18, align 8, !tbaa !14
  call void @BN_CTX_start(ptr noundef %58)
  %59 = load ptr, ptr %18, align 8, !tbaa !14
  %60 = call ptr @BN_CTX_get(ptr noundef %59)
  store ptr %60, ptr %12, align 8, !tbaa !32
  %61 = load ptr, ptr %18, align 8, !tbaa !14
  %62 = call ptr @BN_CTX_get(ptr noundef %61)
  store ptr %62, ptr %13, align 8, !tbaa !32
  %63 = load ptr, ptr %10, align 8, !tbaa !12
  %64 = getelementptr inbounds nuw %struct.rsa_st, ptr %63, i32 0, i32 5
  %65 = load ptr, ptr %64, align 8, !tbaa !16
  %66 = call i32 @BN_num_bits(ptr noundef %65)
  %67 = add nsw i32 %66, 7
  %68 = sdiv i32 %67, 8
  store i32 %68, ptr %15, align 4, !tbaa !8
  %69 = load i32, ptr %15, align 4, !tbaa !8
  %70 = sext i32 %69 to i64
  %71 = call noalias ptr @CRYPTO_malloc(i64 noundef %70, ptr noundef @.str.2, i32 noundef 131)
  store ptr %71, ptr %17, align 8, !tbaa !10
  %72 = load ptr, ptr %13, align 8, !tbaa !32
  %73 = icmp eq ptr %72, null
  br i1 %73, label %77, label %74

74:                                               ; preds = %57
  %75 = load ptr, ptr %17, align 8, !tbaa !10
  %76 = icmp eq ptr %75, null
  br i1 %76, label %77, label %78

77:                                               ; preds = %74, %57
  br label %170

78:                                               ; preds = %74
  %79 = load i32, ptr %11, align 4, !tbaa !8
  switch i32 %79, label %104 [
    i32 1, label %80
    i32 4, label %89
    i32 3, label %98
  ]

80:                                               ; preds = %78
  %81 = load ptr, ptr %10, align 8, !tbaa !12
  %82 = getelementptr inbounds nuw %struct.rsa_st, ptr %81, i32 0, i32 1
  %83 = load ptr, ptr %82, align 8, !tbaa !31
  %84 = load ptr, ptr %17, align 8, !tbaa !10
  %85 = load i32, ptr %15, align 4, !tbaa !8
  %86 = load ptr, ptr %8, align 8, !tbaa !10
  %87 = load i32, ptr %7, align 4, !tbaa !8
  %88 = call i32 @ossl_rsa_padding_add_PKCS1_type_2_ex(ptr noundef %83, ptr noundef %84, i32 noundef %85, ptr noundef %86, i32 noundef %87)
  store i32 %88, ptr %14, align 4, !tbaa !8
  br label %105

89:                                               ; preds = %78
  %90 = load ptr, ptr %10, align 8, !tbaa !12
  %91 = getelementptr inbounds nuw %struct.rsa_st, ptr %90, i32 0, i32 1
  %92 = load ptr, ptr %91, align 8, !tbaa !31
  %93 = load ptr, ptr %17, align 8, !tbaa !10
  %94 = load i32, ptr %15, align 4, !tbaa !8
  %95 = load ptr, ptr %8, align 8, !tbaa !10
  %96 = load i32, ptr %7, align 4, !tbaa !8
  %97 = call i32 @ossl_rsa_padding_add_PKCS1_OAEP_mgf1_ex(ptr noundef %92, ptr noundef %93, i32 noundef %94, ptr noundef %95, i32 noundef %96, ptr noundef null, i32 noundef 0, ptr noundef null, ptr noundef null)
  store i32 %97, ptr %14, align 4, !tbaa !8
  br label %105

98:                                               ; preds = %78
  %99 = load ptr, ptr %17, align 8, !tbaa !10
  %100 = load i32, ptr %15, align 4, !tbaa !8
  %101 = load ptr, ptr %8, align 8, !tbaa !10
  %102 = load i32, ptr %7, align 4, !tbaa !8
  %103 = call i32 @RSA_padding_add_none(ptr noundef %99, i32 noundef %100, ptr noundef %101, i32 noundef %102)
  store i32 %103, ptr %14, align 4, !tbaa !8
  br label %105

104:                                              ; preds = %78
  call void @ERR_new()
  call void @ERR_set_debug(ptr noundef @.str.2, i32 noundef 149, ptr noundef @__func__.rsa_ossl_public_encrypt)
  call void (i32, i32, ptr, ...) @ERR_set_error(i32 noundef 4, i32 noundef 118, ptr noundef null)
  br label %170

105:                                              ; preds = %98, %89, %80
  %106 = load i32, ptr %14, align 4, !tbaa !8
  %107 = icmp sle i32 %106, 0
  br i1 %107, label %108, label %109

108:                                              ; preds = %105
  br label %170

109:                                              ; preds = %105
  %110 = load ptr, ptr %17, align 8, !tbaa !10
  %111 = load i32, ptr %15, align 4, !tbaa !8
  %112 = load ptr, ptr %12, align 8, !tbaa !32
  %113 = call ptr @BN_bin2bn(ptr noundef %110, i32 noundef %111, ptr noundef %112)
  %114 = icmp eq ptr %113, null
  br i1 %114, label %115, label %116

115:                                              ; preds = %109
  br label %170

116:                                              ; preds = %109
  %117 = load ptr, ptr %12, align 8, !tbaa !32
  %118 = load ptr, ptr %10, align 8, !tbaa !12
  %119 = getelementptr inbounds nuw %struct.rsa_st, ptr %118, i32 0, i32 5
  %120 = load ptr, ptr %119, align 8, !tbaa !16
  %121 = call i32 @BN_ucmp(ptr noundef %117, ptr noundef %120)
  %122 = icmp sge i32 %121, 0
  br i1 %122, label %123, label %124

123:                                              ; preds = %116
  call void @ERR_new()
  call void @ERR_set_debug(ptr noundef @.str.2, i32 noundef 184, ptr noundef @__func__.rsa_ossl_public_encrypt)
  call void (i32, i32, ptr, ...) @ERR_set_error(i32 noundef 4, i32 noundef 132, ptr noundef null)
  br label %170

124:                                              ; preds = %116
  %125 = load ptr, ptr %10, align 8, !tbaa !12
  %126 = getelementptr inbounds nuw %struct.rsa_st, ptr %125, i32 0, i32 18
  %127 = load i32, ptr %126, align 4, !tbaa !33
  %128 = and i32 %127, 2
  %129 = icmp ne i32 %128, 0
  br i1 %129, label %130, label %144

130:                                              ; preds = %124
  %131 = load ptr, ptr %10, align 8, !tbaa !12
  %132 = getelementptr inbounds nuw %struct.rsa_st, ptr %131, i32 0, i32 19
  %133 = load ptr, ptr %10, align 8, !tbaa !12
  %134 = getelementptr inbounds nuw %struct.rsa_st, ptr %133, i32 0, i32 24
  %135 = load ptr, ptr %134, align 8, !tbaa !34
  %136 = load ptr, ptr %10, align 8, !tbaa !12
  %137 = getelementptr inbounds nuw %struct.rsa_st, ptr %136, i32 0, i32 5
  %138 = load ptr, ptr %137, align 8, !tbaa !16
  %139 = load ptr, ptr %18, align 8, !tbaa !14
  %140 = call ptr @BN_MONT_CTX_set_locked(ptr noundef %132, ptr noundef %135, ptr noundef %138, ptr noundef %139)
  %141 = icmp ne ptr %140, null
  br i1 %141, label %143, label %142

142:                                              ; preds = %130
  br label %170

143:                                              ; preds = %130
  br label %144

144:                                              ; preds = %143, %124
  %145 = load ptr, ptr %10, align 8, !tbaa !12
  %146 = getelementptr inbounds nuw %struct.rsa_st, ptr %145, i32 0, i32 3
  %147 = load ptr, ptr %146, align 8, !tbaa !35
  %148 = getelementptr inbounds nuw %struct.rsa_meth_st, ptr %147, i32 0, i32 6
  %149 = load ptr, ptr %148, align 8, !tbaa !36
  %150 = load ptr, ptr %13, align 8, !tbaa !32
  %151 = load ptr, ptr %12, align 8, !tbaa !32
  %152 = load ptr, ptr %10, align 8, !tbaa !12
  %153 = getelementptr inbounds nuw %struct.rsa_st, ptr %152, i32 0, i32 6
  %154 = load ptr, ptr %153, align 8, !tbaa !30
  %155 = load ptr, ptr %10, align 8, !tbaa !12
  %156 = getelementptr inbounds nuw %struct.rsa_st, ptr %155, i32 0, i32 5
  %157 = load ptr, ptr %156, align 8, !tbaa !16
  %158 = load ptr, ptr %18, align 8, !tbaa !14
  %159 = load ptr, ptr %10, align 8, !tbaa !12
  %160 = getelementptr inbounds nuw %struct.rsa_st, ptr %159, i32 0, i32 19
  %161 = load ptr, ptr %160, align 8, !tbaa !38
  %162 = call i32 %149(ptr noundef %150, ptr noundef %151, ptr noundef %154, ptr noundef %157, ptr noundef %158, ptr noundef %161)
  %163 = icmp ne i32 %162, 0
  br i1 %163, label %165, label %164

164:                                              ; preds = %144
  br label %170

165:                                              ; preds = %144
  %166 = load ptr, ptr %13, align 8, !tbaa !32
  %167 = load ptr, ptr %9, align 8, !tbaa !10
  %168 = load i32, ptr %15, align 4, !tbaa !8
  %169 = call i32 @BN_bn2binpad(ptr noundef %166, ptr noundef %167, i32 noundef %168)
  store i32 %169, ptr %16, align 4, !tbaa !8
  br label %170

170:                                              ; preds = %165, %164, %142, %123, %115, %108, %104, %77, %56
  %171 = load ptr, ptr %18, align 8, !tbaa !14
  call void @BN_CTX_end(ptr noundef %171)
  %172 = load ptr, ptr %18, align 8, !tbaa !14
  call void @BN_CTX_free(ptr noundef %172)
  %173 = load ptr, ptr %17, align 8, !tbaa !10
  %174 = load i32, ptr %15, align 4, !tbaa !8
  %175 = sext i32 %174 to i64
  call void @CRYPTO_clear_free(ptr noundef %173, i64 noundef %175, ptr noundef @.str.2, i32 noundef 206)
  %176 = load i32, ptr %16, align 4, !tbaa !8
  store i32 %176, ptr %6, align 4
  store i32 1, ptr %19, align 4
  br label %177

177:                                              ; preds = %170, %48, %35, %25
  call void @llvm.lifetime.end.p0(i64 8, ptr %18) #6
  call void @llvm.lifetime.end.p0(i64 8, ptr %17) #6
  call void @llvm.lifetime.end.p0(i64 4, ptr %16) #6
  call void @llvm.lifetime.end.p0(i64 4, ptr %15) #6
  call void @llvm.lifetime.end.p0(i64 4, ptr %14) #6
  call void @llvm.lifetime.end.p0(i64 8, ptr %13) #6
  call void @llvm.lifetime.end.p0(i64 8, ptr %12) #6
  %178 = load i32, ptr %6, align 4
  ret i32 %178
}