; Function Attrs: nounwind uwtable
define internal i32 @rsa_ossl_public_encrypt(i32 noundef %0, ptr noundef %1, ptr noundef %2, ptr noundef %3, i32 noundef %4) #3 {
  %6 = getelementptr inbounds nuw i8, ptr %3, i64 40
  %7 = load ptr, ptr %6, align 8, !tbaa !8
  %8 = tail call i32 @BN_num_bits(ptr noundef %7) #9
  %9 = icmp sgt i32 %8, 16384
  br i1 %9, label %10, label %11

10:                                               ; preds = %5
  tail call void @ERR_new() #9
  tail call void @ERR_set_debug(ptr noundef nonnull @.str.2, i32 noundef 108, ptr noundef nonnull @__func__.rsa_ossl_public_encrypt) #9
  tail call void (i32, i32, ptr, ...) @ERR_set_error(i32 noundef 4, i32 noundef 105, ptr noundef null) #9
  br label %86

11:                                               ; preds = %5
  %12 = load ptr, ptr %6, align 8, !tbaa !8
  %13 = getelementptr inbounds nuw i8, ptr %3, i64 48
  %14 = load ptr, ptr %13, align 8, !tbaa !23
  %15 = tail call i32 @BN_ucmp(ptr noundef %12, ptr noundef %14) #9
  %16 = icmp slt i32 %15, 1
  br i1 %16, label %17, label %18

17:                                               ; preds = %11
  tail call void @ERR_new() #9
  tail call void @ERR_set_debug(ptr noundef nonnull @.str.2, i32 noundef 113, ptr noundef nonnull @__func__.rsa_ossl_public_encrypt) #9
  tail call void (i32, i32, ptr, ...) @ERR_set_error(i32 noundef 4, i32 noundef 101, ptr noundef null) #9
  br label %86

18:                                               ; preds = %11
  %19 = load ptr, ptr %6, align 8, !tbaa !8
  %20 = tail call i32 @BN_num_bits(ptr noundef %19) #9
  %21 = icmp sgt i32 %20, 3072
  br i1 %21, label %22, label %27

22:                                               ; preds = %18
  %23 = load ptr, ptr %13, align 8, !tbaa !23
  %24 = tail call i32 @BN_num_bits(ptr noundef %23) #9
  %25 = icmp sgt i32 %24, 64
  br i1 %25, label %26, label %27

26:                                               ; preds = %22
  tail call void @ERR_new() #9
  tail call void @ERR_set_debug(ptr noundef nonnull @.str.2, i32 noundef 120, ptr noundef nonnull @__func__.rsa_ossl_public_encrypt) #9
  tail call void (i32, i32, ptr, ...) @ERR_set_error(i32 noundef 4, i32 noundef 101, ptr noundef null) #9
  br label %86

27:                                               ; preds = %22, %18
  %28 = getelementptr inbounds nuw i8, ptr %3, i64 8
  %29 = load ptr, ptr %28, align 8, !tbaa !24
  %30 = tail call ptr @BN_CTX_new_ex(ptr noundef %29) #9
  %31 = icmp eq ptr %30, null
  br i1 %31, label %._crit_edge, label %32

32:                                               ; preds = %27
  tail call void @BN_CTX_start(ptr noundef nonnull %30) #9
  %33 = tail call ptr @BN_CTX_get(ptr noundef nonnull %30) #9
  %34 = tail call ptr @BN_CTX_get(ptr noundef nonnull %30) #9
  %35 = load ptr, ptr %6, align 8, !tbaa !8
  %36 = tail call i32 @BN_num_bits(ptr noundef %35) #9
  %37 = add nsw i32 %36, 7
  %38 = sdiv i32 %37, 8
  %39 = sext i32 %38 to i64
  %40 = tail call noalias ptr @CRYPTO_malloc(i64 noundef %39, ptr noundef nonnull @.str.2, i32 noundef 131) #9
  %41 = icmp eq ptr %34, null
  %42 = icmp eq ptr %40, null
  %or.cond = select i1 %41, i1 true, i1 %42
  br i1 %or.cond, label %._crit_edge, label %43

43:                                               ; preds = %32
  switch i32 %4, label %52 [
    i32 1, label %44
    i32 4, label %47
    i32 3, label %50
  ]

44:                                               ; preds = %43
  %45 = load ptr, ptr %28, align 8, !tbaa !24
  %46 = tail call i32 @ossl_rsa_padding_add_PKCS1_type_2_ex(ptr noundef %45, ptr noundef nonnull %40, i32 noundef %38, ptr noundef %1, i32 noundef %0) #9
  br label %53

47:                                               ; preds = %43
  %48 = load ptr, ptr %28, align 8, !tbaa !24
  %49 = tail call i32 @ossl_rsa_padding_add_PKCS1_OAEP_mgf1_ex(ptr noundef %48, ptr noundef nonnull %40, i32 noundef %38, ptr noundef %1, i32 noundef %0, ptr noundef null, i32 noundef 0, ptr noundef null, ptr noundef null) #9
  br label %53

50:                                               ; preds = %43
  %51 = tail call i32 @RSA_padding_add_none(ptr noundef nonnull %40, i32 noundef %38, ptr noundef %1, i32 noundef %0) #9
  br label %53

52:                                               ; preds = %43
  tail call void @ERR_new() #9
  tail call void @ERR_set_debug(ptr noundef nonnull @.str.2, i32 noundef 149, ptr noundef nonnull @__func__.rsa_ossl_public_encrypt) #9
  tail call void (i32, i32, ptr, ...) @ERR_set_error(i32 noundef 4, i32 noundef 118, ptr noundef null) #9
  br label %._crit_edge

53:                                               ; preds = %50, %47, %44
  %.057 = phi i32 [ %51, %50 ], [ %49, %47 ], [ %46, %44 ]
  %54 = icmp slt i32 %.057, 1
  br i1 %54, label %._crit_edge, label %55

55:                                               ; preds = %53
  %56 = tail call ptr @BN_bin2bn(ptr noundef nonnull %40, i32 noundef %38, ptr noundef %33) #9
  %57 = icmp eq ptr %56, null
  br i1 %57, label %._crit_edge, label %58

58:                                               ; preds = %55
  %59 = load ptr, ptr %6, align 8, !tbaa !8
  %60 = tail call i32 @BN_ucmp(ptr noundef %33, ptr noundef %59) #9
  %61 = icmp sgt i32 %60, -1
  br i1 %61, label %62, label %63

62:                                               ; preds = %58
  tail call void @ERR_new() #9
  tail call void @ERR_set_debug(ptr noundef nonnull @.str.2, i32 noundef 184, ptr noundef nonnull @__func__.rsa_ossl_public_encrypt) #9
  tail call void (i32, i32, ptr, ...) @ERR_set_error(i32 noundef 4, i32 noundef 132, ptr noundef null) #9
  br label %._crit_edge

63:                                               ; preds = %58
  %64 = getelementptr inbounds nuw i8, ptr %3, i64 164
  %65 = load i32, ptr %64, align 4, !tbaa !25
  %66 = and i32 %65, 2
  %.not = icmp eq i32 %66, 0
  br i1 %.not, label %73, label %67

67:                                               ; preds = %63
  %68 = getelementptr inbounds nuw i8, ptr %3, i64 168
  %69 = getelementptr inbounds nuw i8, ptr %3, i64 208
  %70 = load ptr, ptr %69, align 8, !tbaa !26
  %71 = load ptr, ptr %6, align 8, !tbaa !8
  %72 = tail call ptr @BN_MONT_CTX_set_locked(ptr noundef nonnull %68, ptr noundef %70, ptr noundef %71, ptr noundef nonnull %30) #9
  %.not62 = icmp eq ptr %72, null
  br i1 %.not62, label %._crit_edge, label %73

73:                                               ; preds = %67, %63
  %74 = getelementptr inbounds nuw i8, ptr %3, i64 24
  %75 = load ptr, ptr %74, align 8, !tbaa !27
  %76 = getelementptr inbounds nuw i8, ptr %75, i64 48
  %77 = load ptr, ptr %76, align 8, !tbaa !28
  %78 = load ptr, ptr %13, align 8, !tbaa !23
  %79 = load ptr, ptr %6, align 8, !tbaa !8
  %80 = getelementptr inbounds nuw i8, ptr %3, i64 168
  %81 = load ptr, ptr %80, align 8, !tbaa !31
  %82 = tail call i32 %77(ptr noundef nonnull %34, ptr noundef %33, ptr noundef %78, ptr noundef %79, ptr noundef nonnull %30, ptr noundef %81) #9
  %.not63 = icmp eq i32 %82, 0
  br i1 %.not63, label %._crit_edge, label %83

83:                                               ; preds = %73
  %84 = tail call i32 @BN_bn2binpad(ptr noundef nonnull %34, ptr noundef %2, i32 noundef %38) #9
  br label %._crit_edge

._crit_edge:                                      ; preds = %27, %73, %67, %55, %53, %32, %83, %62, %52
  %.056 = phi i32 [ %38, %32 ], [ %38, %52 ], [ %38, %53 ], [ %38, %55 ], [ %38, %62 ], [ %38, %83 ], [ %38, %73 ], [ %38, %67 ], [ 0, %27 ]
  %.055 = phi i32 [ -1, %32 ], [ -1, %52 ], [ -1, %53 ], [ -1, %55 ], [ -1, %62 ], [ %84, %83 ], [ -1, %73 ], [ -1, %67 ], [ -1, %27 ]
  %.0 = phi ptr [ %40, %32 ], [ %40, %52 ], [ %40, %53 ], [ %40, %55 ], [ %40, %62 ], [ %40, %83 ], [ %40, %73 ], [ %40, %67 ], [ null, %27 ]
  tail call void @BN_CTX_end(ptr noundef %30) #9
  tail call void @BN_CTX_free(ptr noundef %30) #9
  %85 = sext i32 %.056 to i64
  tail call void @CRYPTO_clear_free(ptr noundef %.0, i64 noundef %85, ptr noundef nonnull @.str.2, i32 noundef 206) #9
  br label %86

86:                                               ; preds = %._crit_edge, %26, %17, %10
  %.058 = phi i32 [ -1, %10 ], [ -1, %17 ], [ -1, %26 ], [ %.055, %._crit_edge ]
  ret i32 %.058
}